target datalayout = "e-m:e-p270:32:32-p271:32:32-p272:64:64-i64:64-i128:128-f80:128-n8:16:32:64-S128"
target triple = "x86_64-pc-linux-gnu"

%"class.std::__cxx11::basic_string" = type { %"struct.std::__cxx11::basic_string<char>::_Alloc_hider", i64, %union.anon }
%"struct.std::__cxx11::basic_string<char>::_Alloc_hider" = type { ptr }
%union.anon = type { i64, [8 x i8] }
%struct.PJ_AREA = type { i8, double, double, double, double, %"class.std::__cxx11::basic_string" }

; Function Attrs: mustprogress nounwind uwtable
define void @proj_area_set_bbox(ptr noundef %0, double noundef %1, double noundef %2, double noundef %3, double noundef %4) #0 {
  %6 = alloca ptr, align 8
  %7 = alloca double, align 8
  %8 = alloca double, align 8
  %9 = alloca double, align 8
  %10 = alloca double, align 8
  store ptr %0, ptr %6, align 8
  store double %1, ptr %7, align 8
  store double %2, ptr %8, align 8
  store double %3, ptr %9, align 8
  store double %4, ptr %10, align 8
  %11 = load ptr, ptr %6, align 8
  %12 = getelementptr inbounds %struct.PJ_AREA, ptr %11, i32 0, i32 0
  store i8 1, ptr %12, align 8
  %13 = load double, ptr %7, align 8
  %14 = load ptr, ptr %6, align 8
  %15 = getelementptr inbounds %struct.PJ_AREA, ptr %14, i32 0, i32 1
  store double %13, ptr %15, align 8
  %16 = load double, ptr %8, align 8
  %17 = load ptr, ptr %6, align 8
  %18 = getelementptr inbounds %struct.PJ_AREA, ptr %17, i32 0, i32 2
  store double %16, ptr %18, align 8
  %19 = load double, ptr %9, align 8
  %20 = load ptr, ptr %6, align 8
  %21 = getelementptr inbounds %struct.PJ_AREA, ptr %20, i32 0, i32 3
  store double %19, ptr %21, align 8
  %22 = load double, ptr %10, align 8
  %23 = load ptr, ptr %6, align 8
  %24 = getelementptr inbounds %struct.PJ_AREA, ptr %23, i32 0, i32 4
  store double %22, ptr %24, align 8
  ret void
}